target datalayout = "e-m:e-p270:32:32-p271:32:32-p272:64:64-i64:64-i128:128-f80:128-n8:16:32:64-S128"
target triple = "x86_64-pc-linux-gnu"

@.str = private unnamed_addr constant [8 x i8] c" %s.%s(\00", align 1
@.str.4 = private unnamed_addr constant [2 x i8] c")\00", align 1

; Function Attrs: mustprogress nounwind uwtable
define hidden void @_ZN6Method19print_external_nameEP12outputStreamP5KlassP6SymbolS5_(ptr noundef %0, ptr noundef %1, ptr noundef %2, ptr noundef %3) #1 align 2 {
  %5 = alloca ptr, align 8
  %6 = alloca ptr, align 8
  %7 = alloca ptr, align 8
  %8 = alloca ptr, align 8
  store ptr %0, ptr %5, align 8
  store ptr %1, ptr %6, align 8
  store ptr %2, ptr %7, align 8
  store ptr %3, ptr %8, align 8
  %9 = load ptr, ptr %8, align 8
  %10 = load ptr, ptr %5, align 8
  call void @_ZN6Symbol39print_as_signature_external_return_typeEP12outputStream(ptr noundef nonnull align 4 dereferenceable(8) %9, ptr noundef %10)
  %11 = load ptr, ptr %5, align 8
  %12 = load ptr, ptr %6, align 8
  %13 = call noundef ptr @_ZNK5Klass13external_nameEv(ptr noundef nonnull align 8 dereferenceable(196) %12)
  %14 = load ptr, ptr %7, align 8
  %15 = call noundef ptr @_ZNK6Symbol11as_C_stringEv(ptr noundef nonnull align 4 dereferenceable(8) %14)
  call void (ptr, ptr, ...) @_ZN12outputStream5printEPKcz(ptr noundef nonnull align 8 dereferenceable(56) %11, ptr noundef @.str, ptr noundef %13, ptr noundef %15)
  %16 = load ptr, ptr %8, align 8
  %17 = load ptr, ptr %5, align 8
  call void @_ZN6Symbol38print_as_signature_external_parametersEP12outputStream(ptr noundef nonnull align 4 dereferenceable(8) %16, ptr noundef %17)
  %18 = load ptr, ptr %5, align 8
  call void (ptr, ptr, ...) @_ZN12outputStream5printEPKcz(ptr noundef nonnull align 8 dereferenceable(56) %18, ptr noundef @.str.4)
  ret void
}