; Function Attrs: mustprogress nounwind uwtable
define hidden void @_ZN6Method19print_external_nameEP12outputStreamP5KlassP6SymbolS5_(ptr noundef %0, ptr noundef %1, ptr noundef %2, ptr noundef nonnull %3) local_unnamed_addr #0 align 2 {
  tail call void @_ZN6Symbol39print_as_signature_external_return_typeEP12outputStream(ptr noundef nonnull align 4 dereferenceable(8) %3, ptr noundef %0) #23
  %5 = tail call noundef ptr @_ZNK5Klass13external_nameEv(ptr noundef nonnull align 8 dereferenceable(196) %1) #23
  %6 = tail call noundef ptr @_ZNK6Symbol11as_C_stringEv(ptr noundef nonnull align 4 dereferenceable(8) %2) #23
  tail call void (ptr, ptr, ...) @_ZN12outputStream5printEPKcz(ptr noundef nonnull align 8 dereferenceable(56) %0, ptr noundef nonnull @.str, ptr noundef %5, ptr noundef %6) #23
  tail call void @_ZN6Symbol38print_as_signature_external_parametersEP12outputStream(ptr noundef nonnull align 4 dereferenceable(8) %3, ptr noundef nonnull %0) #23
  tail call void (ptr, ptr, ...) @_ZN12outputStream5printEPKcz(ptr noundef nonnull align 8 dereferenceable(56) %0, ptr noundef nonnull @.str.4) #23
  ret void
}